target datalayout = "e-m:e-p270:32:32-p271:32:32-p272:64:64-i64:64-i128:128-f80:128-n8:16:32:64-S128"
target triple = "x86_64-pc-linux-gnu"

%"class.std::__shared_count" = type { ptr }
%"class.std::__cxx11::basic_string" = type { %"struct.std::__cxx11::basic_string<char>::_Alloc_hider", i64, %union.anon }
%"struct.std::__cxx11::basic_string<char>::_Alloc_hider" = type { ptr }
%union.anon = type { i64, [8 x i8] }
%"class.cv::dnn::dnn4_v20241223::ActivationLayer.base" = type { %"class.cv::dnn::dnn4_v20241223::Layer.base" }
%"class.cv::dnn::dnn4_v20241223::Layer.base" = type <{ %"class.cv::Algorithm", %"class.std::vector", %"class.std::__cxx11::basic_string", %"class.std::__cxx11::basic_string", i32 }>
%"class.cv::Algorithm" = type { ptr }
%"class.std::vector" = type { %"struct.std::_Vector_base" }
%"struct.std::_Vector_base" = type { %"struct.std::_Vector_base<cv::Mat, std::allocator<cv::Mat>>::_Vector_impl" }
%"struct.std::_Vector_base<cv::Mat, std::allocator<cv::Mat>>::_Vector_impl" = type { %"struct.std::_Vector_base<cv::Mat, std::allocator<cv::Mat>>::_Vector_impl_data" }
%"struct.std::_Vector_base<cv::Mat, std::allocator<cv::Mat>>::_Vector_impl_data" = type { ptr, ptr, ptr }
%"struct.cv::Ptr.30" = type { %"class.std::shared_ptr.31" }
%"class.std::shared_ptr.31" = type { %"class.std::__shared_ptr.32" }
%"class.std::__shared_ptr.32" = type { ptr, %"class.std::__shared_count" }
%"struct.cv::dnn::SwishFunctor" = type { i32 }
%"class.cv::dnn::ElementWiseLayer.34" = type { %"class.cv::dnn::dnn4_v20241223::SwishLayer.base", %"struct.cv::dnn::SwishFunctor" }
%"class.cv::dnn::dnn4_v20241223::SwishLayer.base" = type { %"class.cv::dnn::dnn4_v20241223::ActivationLayer.base" }
%"struct.cv::has_custom_delete.330" = type { i8 }
%"class.std::_Sp_counted_base" = type { ptr, i32, i32 }
%"class.std::_Sp_counted_ptr.331" = type { %"class.std::_Sp_counted_base", ptr }

; Function Attrs: mustprogress nounwind uwtable
define linkonce_odr hidden void @_ZNSt16_Sp_counted_baseILN9__gnu_cxx12_Lock_policyE2EEC2Ev(ptr noundef nonnull align 8 dereferenceable(16) %0) unnamed_addr #7 comdat align 2 {
  %2 = alloca ptr, align 8
  store ptr %0, ptr %2, align 8, !tbaa !482
  %3 = load ptr, ptr %2, align 8
  store ptr getelementptr inbounds inrange(-16, 40) ({ [7 x ptr] }, ptr @_ZTVSt16_Sp_counted_baseILN9__gnu_cxx12_Lock_policyE2EE, i32 0, i32 0, i32 2), ptr %3, align 8, !tbaa !42
  %4 = getelementptr inbounds nuw %"class.std::_Sp_counted_base", ptr %3, i32 0, i32 1
  store i32 1, ptr %4, align 8, !tbaa !489
  %5 = getelementptr inbounds nuw %"class.std::_Sp_counted_base", ptr %3, i32 0, i32 2
  store i32 1, ptr %5, align 4, !tbaa !491
  ret void
}

; Function Attrs: mustprogress nounwind uwtable
define linkonce_odr hidden void @_ZNSt15_Sp_counted_ptrIPN2cv3dnn16ElementWiseLayerINS1_12SwishFunctorEEELN9__gnu_cxx12_Lock_policyE2EEC2ES5_(ptr noundef nonnull align 8 dereferenceable(24) %0, ptr noundef %1) unnamed_addr #7 comdat align 2 {
  %3 = alloca ptr, align 8
  %4 = alloca ptr, align 8
  store ptr %0, ptr %3, align 8, !tbaa !875
  store ptr %1, ptr %4, align 8, !tbaa !92
  %5 = load ptr, ptr %3, align 8
  call void @_ZNSt16_Sp_counted_baseILN9__gnu_cxx12_Lock_policyE2EEC2Ev(ptr noundef nonnull align 8 dereferenceable(16) %5) #3
  store ptr getelementptr inbounds inrange(-16, 40) ({ [7 x ptr] }, ptr @_ZTVSt15_Sp_counted_ptrIPN2cv3dnn16ElementWiseLayerINS1_12SwishFunctorEEELN9__gnu_cxx12_Lock_policyE2EE, i32 0, i32 0, i32 2), ptr %5, align 8, !tbaa !42
  %6 = getelementptr inbounds nuw %"class.std::_Sp_counted_ptr.331", ptr %5, i32 0, i32 1
  %7 = load ptr, ptr %4, align 8, !tbaa !92
  store ptr %7, ptr %6, align 8, !tbaa !877
  ret void
}

; Function Attrs: mustprogress uwtable
define linkonce_odr hidden void @_ZNSt14__shared_countILN9__gnu_cxx12_Lock_policyE2EEC2IPN2cv3dnn16ElementWiseLayerINS5_12SwishFunctorEEEEET_(ptr noundef nonnull align 8 dereferenceable(8) %0, ptr noundef %1) unnamed_addr #4 comdat align 2 personality ptr @__gxx_personality_v0 {
  %3 = alloca ptr, align 8
  %4 = alloca ptr, align 8
  %5 = alloca ptr, align 8
  %6 = alloca i32, align 4
  store ptr %0, ptr %3, align 8, !tbaa !477
  store ptr %1, ptr %4, align 8, !tbaa !92
  %7 = load ptr, ptr %3, align 8
  %8 = getelementptr inbounds nuw %"class.std::__shared_count", ptr %7, i32 0, i32 0
  store ptr null, ptr %8, align 8, !tbaa !479
  %9 = invoke noalias noundef nonnull ptr @_Znwm(i64 noundef 24) #23
          to label %10 unwind label %13

10:                                               ; preds = %2
  %11 = load ptr, ptr %4, align 8, !tbaa !92
  call void @_ZNSt15_Sp_counted_ptrIPN2cv3dnn16ElementWiseLayerINS1_12SwishFunctorEEELN9__gnu_cxx12_Lock_policyE2EEC2ES5_(ptr noundef nonnull align 8 dereferenceable(24) %9, ptr noundef %11) #3
  %12 = getelementptr inbounds nuw %"class.std::__shared_count", ptr %7, i32 0, i32 0
  store ptr %9, ptr %12, align 8, !tbaa !479
  br label %32

13:                                               ; preds = %2
  %14 = landingpad { ptr, i32 }
          catch ptr null
  %15 = extractvalue { ptr, i32 } %14, 0
  store ptr %15, ptr %5, align 8
  %16 = extractvalue { ptr, i32 } %14, 1
  store i32 %16, ptr %6, align 4
  br label %17

17:                                               ; preds = %13
  %18 = load ptr, ptr %5, align 8
  %19 = call ptr @__cxa_begin_catch(ptr %18) #3
  %20 = load ptr, ptr %4, align 8, !tbaa !92
  %21 = icmp eq ptr %20, null
  br i1 %21, label %26, label %22

22:                                               ; preds = %17
  %23 = load ptr, ptr %20, align 8, !tbaa !42
  %24 = getelementptr inbounds ptr, ptr %23, i64 1
  %25 = load ptr, ptr %24, align 8
  call void %25(ptr noundef nonnull align 8 dereferenceable(104) %20) #3
  br label %26

26:                                               ; preds = %22, %17
  invoke void @__cxa_rethrow() #25
          to label %41 unwind label %27

27:                                               ; preds = %26
  %28 = landingpad { ptr, i32 }
          cleanup
  %29 = extractvalue { ptr, i32 } %28, 0
  store ptr %29, ptr %5, align 8
  %30 = extractvalue { ptr, i32 } %28, 1
  store i32 %30, ptr %6, align 4
  invoke void @__cxa_end_catch()
          to label %31 unwind label %38

31:                                               ; preds = %27
  br label %33

32:                                               ; preds = %10
  ret void

33:                                               ; preds = %31
  %34 = load ptr, ptr %5, align 8
  %35 = load i32, ptr %6, align 4
  %36 = insertvalue { ptr, i32 } poison, ptr %34, 0
  %37 = insertvalue { ptr, i32 } %36, i32 %35, 1
  resume { ptr, i32 } %37

38:                                               ; preds = %27
  %39 = landingpad { ptr, i32 }
          catch ptr null
  %40 = extractvalue { ptr, i32 } %39, 0
  call void @__clang_call_terminate(ptr %40) #26
  unreachable

41:                                               ; preds = %26
  unreachable
}

; Function Attrs: mustprogress nounwind uwtable
define linkonce_odr hidden void @_ZNSt12__shared_ptrIN2cv3dnn14dnn4_v2024122310SwishLayerELN9__gnu_cxx12_Lock_policyE2EE31_M_enable_shared_from_this_withINS1_16ElementWiseLayerINS1_12SwishFunctorEEESA_EENSt9enable_ifIXntsr15__has_esft_baseIT0_EE5valueEvE4typeEPT_(ptr noundef nonnull align 8 dereferenceable(16) %0, ptr noundef %1) #7 comdat align 2 {
  %3 = alloca ptr, align 8
  %4 = alloca ptr, align 8
  store ptr %0, ptr %3, align 8, !tbaa !96
  store ptr %1, ptr %4, align 8, !tbaa !92
  ret void
}

; Function Attrs: mustprogress uwtable
define linkonce_odr hidden void @_ZNSt14__shared_countILN9__gnu_cxx12_Lock_policyE2EEC2IPN2cv3dnn16ElementWiseLayerINS5_12SwishFunctorEEEEET_St17integral_constantIbLb0EE(ptr noundef nonnull align 8 dereferenceable(8) %0, ptr noundef %1) unnamed_addr #4 comdat align 2 {
  %3 = alloca ptr, align 8
  %4 = alloca ptr, align 8
  store ptr %0, ptr %3, align 8, !tbaa !477
  store ptr %1, ptr %4, align 8, !tbaa !92
  %5 = load ptr, ptr %3, align 8
  %6 = load ptr, ptr %4, align 8, !tbaa !92
  call void @_ZNSt14__shared_countILN9__gnu_cxx12_Lock_policyE2EEC2IPN2cv3dnn16ElementWiseLayerINS5_12SwishFunctorEEEEET_(ptr noundef nonnull align 8 dereferenceable(8) %5, ptr noundef %6)
  ret void
}

; Function Attrs: mustprogress uwtable
define linkonce_odr hidden void @_ZNSt12__shared_ptrIN2cv3dnn14dnn4_v2024122310SwishLayerELN9__gnu_cxx12_Lock_policyE2EEC2INS1_16ElementWiseLayerINS1_12SwishFunctorEEEvEEPT_(ptr noundef nonnull align 8 dereferenceable(16) %0, ptr noundef %1) unnamed_addr #4 comdat align 2 {
  %3 = alloca ptr, align 8
  %4 = alloca ptr, align 8
  store ptr %0, ptr %3, align 8, !tbaa !96
  store ptr %1, ptr %4, align 8, !tbaa !92
  %5 = load ptr, ptr %3, align 8
  %6 = getelementptr inbounds nuw %"class.std::__shared_ptr.32", ptr %5, i32 0, i32 0
  %7 = load ptr, ptr %4, align 8, !tbaa !92
  store ptr %7, ptr %6, align 8, !tbaa !873
  %8 = getelementptr inbounds nuw %"class.std::__shared_ptr.32", ptr %5, i32 0, i32 1
  %9 = load ptr, ptr %4, align 8, !tbaa !92
  call void @_ZNSt14__shared_countILN9__gnu_cxx12_Lock_policyE2EEC2IPN2cv3dnn16ElementWiseLayerINS5_12SwishFunctorEEEEET_St17integral_constantIbLb0EE(ptr noundef nonnull align 8 dereferenceable(8) %8, ptr noundef %9)
  %10 = load ptr, ptr %4, align 8, !tbaa !92
  call void @_ZNSt12__shared_ptrIN2cv3dnn14dnn4_v2024122310SwishLayerELN9__gnu_cxx12_Lock_policyE2EE31_M_enable_shared_from_this_withINS1_16ElementWiseLayerINS1_12SwishFunctorEEESA_EENSt9enable_ifIXntsr15__has_esft_baseIT0_EE5valueEvE4typeEPT_(ptr noundef nonnull align 8 dereferenceable(16) %5, ptr noundef %10) #3
  ret void
}

; Function Attrs: mustprogress uwtable
define linkonce_odr hidden void @_ZNSt10shared_ptrIN2cv3dnn14dnn4_v2024122310SwishLayerEEC2INS1_16ElementWiseLayerINS1_12SwishFunctorEEEvEEPT_(ptr noundef nonnull align 8 dereferenceable(16) %0, ptr noundef %1) unnamed_addr #4 comdat align 2 {
  %3 = alloca ptr, align 8
  %4 = alloca ptr, align 8
  store ptr %0, ptr %3, align 8, !tbaa !871
  store ptr %1, ptr %4, align 8, !tbaa !92
  %5 = load ptr, ptr %3, align 8
  %6 = load ptr, ptr %4, align 8, !tbaa !92
  call void @_ZNSt12__shared_ptrIN2cv3dnn14dnn4_v2024122310SwishLayerELN9__gnu_cxx12_Lock_policyE2EEC2INS1_16ElementWiseLayerINS1_12SwishFunctorEEEvEEPT_(ptr noundef nonnull align 8 dereferenceable(16) %5, ptr noundef %6)
  ret void
}

; Function Attrs: inlinehint mustprogress uwtable
define linkonce_odr hidden void @_ZN2cv3dnn14dnn4_v2024122315ActivationLayerC2Ev(ptr noundef nonnull align 8 dereferenceable(100) %0) unnamed_addr #6 comdat align 2 {
  %2 = alloca ptr, align 8
  store ptr %0, ptr %2, align 8, !tbaa !683
  %3 = load ptr, ptr %2, align 8
  call void @_ZN2cv3dnn14dnn4_v202412235LayerC2Ev(ptr noundef nonnull align 8 dereferenceable(100) %3)
  store ptr getelementptr inbounds inrange(-16, 288) ({ [38 x ptr] }, ptr @_ZTVN2cv3dnn14dnn4_v2024122315ActivationLayerE, i32 0, i32 0, i32 2), ptr %3, align 8, !tbaa !42
  ret void
}

; Function Attrs: mustprogress nounwind uwtable
define linkonce_odr hidden noundef ptr @_ZNKSt12__shared_ptrIN2cv3dnn14dnn4_v2024122310SwishLayerELN9__gnu_cxx12_Lock_policyE2EE3getEv(ptr noundef nonnull align 8 dereferenceable(16) %0) #7 comdat align 2 {
  %2 = alloca ptr, align 8
  store ptr %0, ptr %2, align 8, !tbaa !96
  %3 = load ptr, ptr %2, align 8
  %4 = getelementptr inbounds nuw %"class.std::__shared_ptr.32", ptr %3, i32 0, i32 0
  %5 = load ptr, ptr %4, align 8, !tbaa !873
  ret ptr %5
}

; Function Attrs: inlinehint mustprogress uwtable
define linkonce_odr hidden void @_ZN2cv3PtrINS_3dnn14dnn4_v2024122310SwishLayerEEC2INS1_16ElementWiseLayerINS1_12SwishFunctorEEEEERKSt17integral_constantIbLb0EEPT_(ptr noundef nonnull align 8 dereferenceable(16) %0, ptr noundef nonnull align 1 dereferenceable(1) %1, ptr noundef %2) unnamed_addr #6 comdat align 2 {
  %4 = alloca ptr, align 8
  %5 = alloca ptr, align 8
  %6 = alloca ptr, align 8
  store ptr %0, ptr %4, align 8, !tbaa !94
  store ptr %1, ptr %5, align 8, !tbaa !743
  store ptr %2, ptr %6, align 8, !tbaa !92
  %7 = load ptr, ptr %4, align 8
  %8 = load ptr, ptr %6, align 8, !tbaa !92
  call void @_ZNSt10shared_ptrIN2cv3dnn14dnn4_v2024122310SwishLayerEEC2INS1_16ElementWiseLayerINS1_12SwishFunctorEEEvEEPT_(ptr noundef nonnull align 8 dereferenceable(16) %7, ptr noundef %8)
  ret void
}

; Function Attrs: inlinehint mustprogress uwtable
define linkonce_odr hidden void @_ZN2cv3dnn14dnn4_v2024122310SwishLayerC2Ev(ptr noundef nonnull align 8 dereferenceable(100) %0) unnamed_addr #6 comdat align 2 {
  %2 = alloca ptr, align 8
  store ptr %0, ptr %2, align 8, !tbaa !853
  %3 = load ptr, ptr %2, align 8
  call void @_ZN2cv3dnn14dnn4_v2024122315ActivationLayerC2Ev(ptr noundef nonnull align 8 dereferenceable(100) %3)
  store ptr getelementptr inbounds inrange(-16, 288) ({ [38 x ptr] }, ptr @_ZTVN2cv3dnn14dnn4_v2024122310SwishLayerE, i32 0, i32 0, i32 2), ptr %3, align 8, !tbaa !42
  ret void
}

; Function Attrs: mustprogress nounwind uwtable
define linkonce_odr hidden noundef ptr @_ZNK2cv3PtrINS_3dnn14dnn4_v2024122310SwishLayerEEptEv(ptr noundef nonnull align 8 dereferenceable(16) %0) #7 comdat align 2 {
  %2 = alloca ptr, align 8
  store ptr %0, ptr %2, align 8, !tbaa !94
  %3 = load ptr, ptr %2, align 8
  %4 = call noundef ptr @_ZNKSt12__shared_ptrIN2cv3dnn14dnn4_v2024122310SwishLayerELN9__gnu_cxx12_Lock_policyE2EE3getEv(ptr noundef nonnull align 8 dereferenceable(16) %3) #3
  ret ptr %4
}

; Function Attrs: inlinehint mustprogress uwtable
define linkonce_odr hidden void @_ZN2cv3PtrINS_3dnn14dnn4_v2024122310SwishLayerEEC2INS1_16ElementWiseLayerINS1_12SwishFunctorEEEEEPT_(ptr noundef nonnull align 8 dereferenceable(16) %0, ptr noundef %1) unnamed_addr #6 comdat align 2 {
  %3 = alloca ptr, align 8
  %4 = alloca ptr, align 8
  %5 = alloca %"struct.cv::has_custom_delete.330", align 1
  store ptr %0, ptr %3, align 8, !tbaa !94
  store ptr %1, ptr %4, align 8, !tbaa !92
  %6 = load ptr, ptr %3, align 8
  call void @llvm.lifetime.start.p0(i64 1, ptr %5) #3
  %7 = load ptr, ptr %4, align 8, !tbaa !92
  call void @_ZN2cv3PtrINS_3dnn14dnn4_v2024122310SwishLayerEEC2INS1_16ElementWiseLayerINS1_12SwishFunctorEEEEERKSt17integral_constantIbLb0EEPT_(ptr noundef nonnull align 8 dereferenceable(16) %6, ptr noundef nonnull align 1 dereferenceable(1) %5, ptr noundef %7)
  call void @llvm.lifetime.end.p0(i64 1, ptr %5) #3
  ret void
}

; Function Attrs: mustprogress uwtable
define linkonce_odr hidden void @_ZN2cv3dnn16ElementWiseLayerINS0_12SwishFunctorEEC2ERKS2_(ptr noundef nonnull align 8 dereferenceable(104) %0, ptr noundef nonnull align 4 dereferenceable(4) %1) unnamed_addr #4 comdat align 2 personality ptr @__gxx_personality_v0 {
  %3 = alloca ptr, align 8
  %4 = alloca ptr, align 8
  %5 = alloca ptr, align 8
  %6 = alloca i32, align 4
  store ptr %0, ptr %3, align 8, !tbaa !92
  store ptr %1, ptr %4, align 8, !tbaa !88
  %7 = load ptr, ptr %3, align 8
  call void @_ZN2cv3dnn14dnn4_v2024122310SwishLayerC2Ev(ptr noundef nonnull align 8 dereferenceable(100) %7)
  store ptr getelementptr inbounds inrange(-16, 288) ({ [38 x ptr] }, ptr @_ZTVN2cv3dnn16ElementWiseLayerINS0_12SwishFunctorEEE, i32 0, i32 0, i32 2), ptr %7, align 8, !tbaa !42
  %8 = getelementptr inbounds nuw %"class.cv::dnn::ElementWiseLayer.34", ptr %7, i32 0, i32 1
  invoke void @_ZN2cv3dnn12SwishFunctorC2Ev(ptr noundef nonnull align 4 dereferenceable(4) %8)
          to label %9 unwind label %12

9:                                                ; preds = %2
  %10 = load ptr, ptr %4, align 8, !tbaa !88
  %11 = getelementptr inbounds nuw %"class.cv::dnn::ElementWiseLayer.34", ptr %7, i32 0, i32 1
  call void @llvm.memcpy.p0.p0.i64(ptr align 4 %11, ptr align 4 %10, i64 4, i1 false)
  ret void

12:                                               ; preds = %2
  %13 = landingpad { ptr, i32 }
          cleanup
  %14 = extractvalue { ptr, i32 } %13, 0
  store ptr %14, ptr %5, align 8
  %15 = extractvalue { ptr, i32 } %13, 1
  store i32 %15, ptr %6, align 4
  call void @_ZN2cv3dnn14dnn4_v202412235LayerD2Ev(ptr noundef nonnull align 8 dereferenceable(100) %7) #3
  br label %16

16:                                               ; preds = %12
  %17 = load ptr, ptr %5, align 8
  %18 = load i32, ptr %6, align 4
  %19 = insertvalue { ptr, i32 } poison, ptr %17, 0
  %20 = insertvalue { ptr, i32 } %19, i32 %18, 1
  resume { ptr, i32 } %20
}

; Function Attrs: mustprogress nounwind uwtable
define linkonce_odr hidden void @_ZN2cv3dnn12SwishFunctorC2Ev(ptr noundef nonnull align 4 dereferenceable(4) %0) unnamed_addr #7 comdat align 2 {
  %2 = alloca ptr, align 8
  store ptr %0, ptr %2, align 8, !tbaa !88
  %3 = load ptr, ptr %2, align 8
  %4 = getelementptr inbounds nuw %"struct.cv::dnn::SwishFunctor", ptr %3, i32 0, i32 0
  store i32 1, ptr %4, align 4, !tbaa !90
  ret void
}

; Function Attrs: mustprogress uwtable
define void @_ZN2cv3dnn14dnn4_v2024122310SwishLayer6createERKNS1_11LayerParamsE(ptr dead_on_unwind noalias writable sret(%"struct.cv::Ptr.30") align 8 %0, ptr noundef nonnull align 8 dereferenceable(136) %1) #4 align 2 personality ptr @__gxx_personality_v0 {
  %3 = alloca ptr, align 8
  %4 = alloca ptr, align 8
  %5 = alloca i1, align 1
  %6 = alloca %"struct.cv::dnn::SwishFunctor", align 4
  %7 = alloca ptr, align 8
  %8 = alloca i32, align 4
  %9 = alloca i1, align 1
  store ptr %0, ptr %3, align 8
  store ptr %1, ptr %4, align 8, !tbaa !3
  store i1 false, ptr %5, align 1
  %10 = call noalias noundef nonnull ptr @_Znwm(i64 noundef 104) #23
  store i1 true, ptr %9, align 1
  call void @llvm.lifetime.start.p0(i64 4, ptr %6) #3
  invoke void @_ZN2cv3dnn12SwishFunctorC2Ev(ptr noundef nonnull align 4 dereferenceable(4) %6)
          to label %11 unwind label %18

11:                                               ; preds = %2
  invoke void @_ZN2cv3dnn16ElementWiseLayerINS0_12SwishFunctorEEC2ERKS2_(ptr noundef nonnull align 8 dereferenceable(104) %10, ptr noundef nonnull align 4 dereferenceable(4) %6)
          to label %12 unwind label %18

12:                                               ; preds = %11
  store i1 false, ptr %9, align 1
  invoke void @_ZN2cv3PtrINS_3dnn14dnn4_v2024122310SwishLayerEEC2INS1_16ElementWiseLayerINS1_12SwishFunctorEEEEEPT_(ptr noundef nonnull align 8 dereferenceable(16) %0, ptr noundef %10)
          to label %13 unwind label %18

13:                                               ; preds = %12
  call void @llvm.lifetime.end.p0(i64 4, ptr %6) #3
  %14 = call noundef ptr @_ZNK2cv3PtrINS_3dnn14dnn4_v2024122310SwishLayerEEptEv(ptr noundef nonnull align 8 dereferenceable(16) %0) #3
  %15 = load ptr, ptr %4, align 8, !tbaa !3
  invoke void @_ZN2cv3dnn14dnn4_v202412235Layer13setParamsFromERKNS1_11LayerParamsE(ptr noundef nonnull align 8 dereferenceable(100) %14, ptr noundef nonnull align 8 dereferenceable(136) %15)
          to label %16 unwind label %25

16:                                               ; preds = %13
  store i1 true, ptr %5, align 1
  %17 = load i1, ptr %5, align 1
  br i1 %17, label %30, label %29

18:                                               ; preds = %12, %11, %2
  %19 = landingpad { ptr, i32 }
          cleanup
  %20 = extractvalue { ptr, i32 } %19, 0
  store ptr %20, ptr %7, align 8
  %21 = extractvalue { ptr, i32 } %19, 1
  store i32 %21, ptr %8, align 4
  call void @llvm.lifetime.end.p0(i64 4, ptr %6) #3
  %22 = load i1, ptr %9, align 1
  br i1 %22, label %23, label %24

23:                                               ; preds = %18
  call void @_ZdlPv(ptr noundef %10) #24
  br label %24

24:                                               ; preds = %23, %18
  br label %31

25:                                               ; preds = %13
  %26 = landingpad { ptr, i32 }
          cleanup
  %27 = extractvalue { ptr, i32 } %26, 0
  store ptr %27, ptr %7, align 8
  %28 = extractvalue { ptr, i32 } %26, 1
  store i32 %28, ptr %8, align 4
  call void @_ZNSt12__shared_ptrIN2cv3dnn14dnn4_v2024122310SwishLayerELN9__gnu_cxx12_Lock_policyE2EED2Ev(ptr noundef nonnull align 8 dereferenceable(16) %0) #3
  br label %31

29:                                               ; preds = %16
  call void @_ZNSt12__shared_ptrIN2cv3dnn14dnn4_v2024122310SwishLayerELN9__gnu_cxx12_Lock_policyE2EED2Ev(ptr noundef nonnull align 8 dereferenceable(16) %0) #3
  br label %30

30:                                               ; preds = %29, %16
  ret void

31:                                               ; preds = %25, %24
  %32 = load ptr, ptr %7, align 8
  %33 = load i32, ptr %8, align 4
  %34 = insertvalue { ptr, i32 } poison, ptr %32, 0
  %35 = insertvalue { ptr, i32 } %34, i32 %33, 1
  resume { ptr, i32 } %35
}